target datalayout = "e-m:e-p270:32:32-p271:32:32-p272:64:64-i64:64-i128:128-f80:128-n8:16:32:64-S128"
target triple = "x86_64-pc-linux-gnu"

%"struct.cv::face::splitr" = type { i64, i64, float }
%"class.cv::RNG" = type { i64 }
%"class.cv::Point_" = type { float, float }
%"class.cv::face::FacemarkKazemiImpl" = type { %"class.cv::face::FacemarkKazemi", %"struct.cv::face::FacemarkKazemi::Params", float, float, float, float, i8, %"class.std::vector", %"class.std::vector.3", %"class.std::vector.8", ptr, ptr }
%"class.cv::face::FacemarkKazemi" = type { %"class.cv::face::Facemark" }
%"class.cv::face::Facemark" = type { %"class.cv::Algorithm" }
%"class.cv::Algorithm" = type { ptr }
%"struct.cv::face::FacemarkKazemi::Params" = type { i64, i64, i64, float, i64, i64, float, i64, %"class.std::__cxx11::basic_string" }
%"class.std::__cxx11::basic_string" = type { %"struct.std::__cxx11::basic_string<char>::_Alloc_hider", i64, %union.anon }
%"struct.std::__cxx11::basic_string<char>::_Alloc_hider" = type { ptr }
%union.anon = type { i64, [8 x i8] }
%"class.std::vector" = type { %"struct.std::_Vector_base" }
%"struct.std::_Vector_base" = type { %"struct.std::_Vector_base<cv::Point_<float>, std::allocator<cv::Point_<float>>>::_Vector_impl" }
%"struct.std::_Vector_base<cv::Point_<float>, std::allocator<cv::Point_<float>>>::_Vector_impl" = type { %"struct.std::_Vector_base<cv::Point_<float>, std::allocator<cv::Point_<float>>>::_Vector_impl_data" }
%"struct.std::_Vector_base<cv::Point_<float>, std::allocator<cv::Point_<float>>>::_Vector_impl_data" = type { ptr, ptr, ptr }
%"class.std::vector.3" = type { %"struct.std::_Vector_base.4" }
%"struct.std::_Vector_base.4" = type { %"struct.std::_Vector_base<std::vector<cv::face::regtree>, std::allocator<std::vector<cv::face::regtree>>>::_Vector_impl" }
%"struct.std::_Vector_base<std::vector<cv::face::regtree>, std::allocator<std::vector<cv::face::regtree>>>::_Vector_impl" = type { %"struct.std::_Vector_base<std::vector<cv::face::regtree>, std::allocator<std::vector<cv::face::regtree>>>::_Vector_impl_data" }
%"struct.std::_Vector_base<std::vector<cv::face::regtree>, std::allocator<std::vector<cv::face::regtree>>>::_Vector_impl_data" = type { ptr, ptr, ptr }
%"class.std::vector.8" = type { %"struct.std::_Vector_base.9" }
%"struct.std::_Vector_base.9" = type { %"struct.std::_Vector_base<std::vector<cv::Point_<float>>, std::allocator<std::vector<cv::Point_<float>>>>::_Vector_impl" }
%"struct.std::_Vector_base<std::vector<cv::Point_<float>>, std::allocator<std::vector<cv::Point_<float>>>>::_Vector_impl" = type { %"struct.std::_Vector_base<std::vector<cv::Point_<float>>, std::allocator<std::vector<cv::Point_<float>>>>::_Vector_impl_data" }
%"struct.std::_Vector_base<std::vector<cv::Point_<float>>, std::allocator<std::vector<cv::Point_<float>>>>::_Vector_impl_data" = type { ptr, ptr, ptr }

; Function Attrs: inlinehint mustprogress nounwind uwtable
define linkonce_odr hidden noundef double @_ZN2cv3RNGcvdEv(ptr noundef nonnull align 8 dereferenceable(8) %0) #6 comdat align 2 {
  %2 = alloca ptr, align 8
  %3 = alloca i32, align 4
  store ptr %0, ptr %2, align 8, !tbaa !49
  %4 = load ptr, ptr %2, align 8
  call void @llvm.lifetime.start.p0(i64 4, ptr %3) #3
  %5 = call noundef i32 @_ZN2cv3RNG4nextEv(ptr noundef nonnull align 8 dereferenceable(8) %4)
  store i32 %5, ptr %3, align 4, !tbaa !10
  %6 = load i32, ptr %3, align 4, !tbaa !10
  %7 = zext i32 %6 to i64
  %8 = shl i64 %7, 32
  %9 = call noundef i32 @_ZN2cv3RNG4nextEv(ptr noundef nonnull align 8 dereferenceable(8) %4)
  %10 = zext i32 %9 to i64
  %11 = or i64 %8, %10
  %12 = uitofp i64 %11 to double
  %13 = fmul double %12, 0x3BF0000000000000
  call void @llvm.lifetime.end.p0(i64 4, ptr %3) #3
  ret double %13
}

; Function Attrs: inlinehint mustprogress nounwind uwtable
define linkonce_odr hidden void @_ZN2cv6Point_IfEC2Eff(ptr noundef nonnull align 4 dereferenceable(8) %0, float noundef %1, float noundef %2) unnamed_addr #6 comdat align 2 {
  %4 = alloca ptr, align 8
  %5 = alloca float, align 4
  %6 = alloca float, align 4
  store ptr %0, ptr %4, align 8, !tbaa !54
  store float %1, ptr %5, align 4, !tbaa !56
  store float %2, ptr %6, align 4, !tbaa !56
  %7 = load ptr, ptr %4, align 8
  %8 = getelementptr inbounds nuw %"class.cv::Point_", ptr %7, i32 0, i32 0
  %9 = load float, ptr %5, align 4, !tbaa !56
  store float %9, ptr %8, align 4, !tbaa !40
  %10 = getelementptr inbounds nuw %"class.cv::Point_", ptr %7, i32 0, i32 1
  %11 = load float, ptr %6, align 4, !tbaa !56
  store float %11, ptr %10, align 4, !tbaa !42
  ret void
}

; Function Attrs: inlinehint mustprogress nounwind uwtable
define internal noundef float @_ZN2cvL13saturate_castIfEET_f(float noundef %0) #6 {
  %2 = alloca float, align 4
  store float %0, ptr %2, align 4, !tbaa !56
  %3 = load float, ptr %2, align 4, !tbaa !56
  ret float %3
}

; Function Attrs: inlinehint mustprogress nounwind uwtable
define linkonce_odr hidden noundef i32 @_ZN2cv3RNG4nextEv(ptr noundef nonnull align 8 dereferenceable(8) %0) #6 comdat align 2 {
  %2 = alloca ptr, align 8
  store ptr %0, ptr %2, align 8, !tbaa !49
  %3 = load ptr, ptr %2, align 8
  %4 = getelementptr inbounds nuw %"class.cv::RNG", ptr %3, i32 0, i32 0
  %5 = load i64, ptr %4, align 8, !tbaa !52
  %6 = trunc i64 %5 to i32
  %7 = zext i32 %6 to i64
  %8 = mul i64 %7, 4164903690
  %9 = getelementptr inbounds nuw %"class.cv::RNG", ptr %3, i32 0, i32 0
  %10 = load i64, ptr %9, align 8, !tbaa !52
  %11 = lshr i64 %10, 32
  %12 = trunc i64 %11 to i32
  %13 = zext i32 %12 to i64
  %14 = add i64 %8, %13
  %15 = getelementptr inbounds nuw %"class.cv::RNG", ptr %3, i32 0, i32 0
  store i64 %14, ptr %15, align 8, !tbaa !52
  %16 = getelementptr inbounds nuw %"class.cv::RNG", ptr %3, i32 0, i32 0
  %17 = load i64, ptr %16, align 8, !tbaa !52
  %18 = trunc i64 %17 to i32
  ret i32 %18
}

; Function Attrs: inlinehint mustprogress uwtable
define linkonce_odr hidden noundef double @_ZN2cv3RNG7uniformEdd(ptr noundef nonnull align 8 dereferenceable(8) %0, double noundef %1, double noundef %2) #7 comdat align 2 {
  %4 = alloca ptr, align 8
  %5 = alloca double, align 8
  %6 = alloca double, align 8
  store ptr %0, ptr %4, align 8, !tbaa !49
  store double %1, ptr %5, align 8, !tbaa !43
  store double %2, ptr %6, align 8, !tbaa !43
  %7 = load ptr, ptr %4, align 8
  %8 = call noundef double @_ZN2cv3RNGcvdEv(ptr noundef nonnull align 8 dereferenceable(8) %7)
  %9 = load double, ptr %6, align 8, !tbaa !43
  %10 = load double, ptr %5, align 8, !tbaa !43
  %11 = fsub double %9, %10
  %12 = load double, ptr %5, align 8, !tbaa !43
  %13 = call double @llvm.fmuladd.f64(double %8, double %11, double %12)
  ret double %13
}

; Function Attrs: inlinehint mustprogress nounwind uwtable
define linkonce_odr noundef float @_ZSt4sqrtf(float noundef %0) #6 comdat {
  %2 = alloca float, align 4
  store float %0, ptr %2, align 4, !tbaa !56
  %3 = load float, ptr %2, align 4, !tbaa !56
  %4 = call float @sqrtf(float noundef %3) #3, !tbaa !10
  ret float %4
}

; Function Attrs: inlinehint mustprogress uwtable
define internal <2 x float> @_ZN2cvmiIfEENS_6Point_IT_EERKS3_S5_(ptr noundef nonnull align 4 dereferenceable(8) %0, ptr noundef nonnull align 4 dereferenceable(8) %1) #8 {
  %3 = alloca %"class.cv::Point_", align 4
  %4 = alloca ptr, align 8
  %5 = alloca ptr, align 8
  store ptr %0, ptr %4, align 8, !tbaa !54
  store ptr %1, ptr %5, align 8, !tbaa !54
  %6 = load ptr, ptr %4, align 8, !tbaa !54
  %7 = getelementptr inbounds nuw %"class.cv::Point_", ptr %6, i32 0, i32 0
  %8 = load float, ptr %7, align 4, !tbaa !40
  %9 = load ptr, ptr %5, align 8, !tbaa !54
  %10 = getelementptr inbounds nuw %"class.cv::Point_", ptr %9, i32 0, i32 0
  %11 = load float, ptr %10, align 4, !tbaa !40
  %12 = fsub float %8, %11
  %13 = call noundef float @_ZN2cvL13saturate_castIfEET_f(float noundef %12)
  %14 = load ptr, ptr %4, align 8, !tbaa !54
  %15 = getelementptr inbounds nuw %"class.cv::Point_", ptr %14, i32 0, i32 1
  %16 = load float, ptr %15, align 4, !tbaa !42
  %17 = load ptr, ptr %5, align 8, !tbaa !54
  %18 = getelementptr inbounds nuw %"class.cv::Point_", ptr %17, i32 0, i32 1
  %19 = load float, ptr %18, align 4, !tbaa !42
  %20 = fsub float %16, %19
  %21 = call noundef float @_ZN2cvL13saturate_castIfEET_f(float noundef %20)
  call void @_ZN2cv6Point_IfEC2Eff(ptr noundef nonnull align 4 dereferenceable(8) %3, float noundef %13, float noundef %21)
  %22 = load <2 x float>, ptr %3, align 4
  ret <2 x float> %22
}

; Function Attrs: mustprogress nounwind uwtable
define linkonce_odr hidden noundef nonnull align 4 dereferenceable(8) ptr @_ZNSt6vectorIN2cv6Point_IfEESaIS2_EEixEm(ptr noundef nonnull align 8 dereferenceable(24) %0, i64 noundef %1) #9 comdat align 2 {
  %3 = alloca ptr, align 8
  %4 = alloca i64, align 8
  store ptr %0, ptr %3, align 8, !tbaa !8
  store i64 %1, ptr %4, align 8, !tbaa !51
  %5 = load ptr, ptr %3, align 8
  %6 = getelementptr inbounds nuw %"struct.std::_Vector_base", ptr %5, i32 0, i32 0
  %7 = getelementptr inbounds nuw %"struct.std::_Vector_base<cv::Point_<float>, std::allocator<cv::Point_<float>>>::_Vector_impl_data", ptr %6, i32 0, i32 0
  %8 = load ptr, ptr %7, align 8, !tbaa !55
  %9 = load i64, ptr %4, align 8, !tbaa !51
  %10 = getelementptr inbounds nuw %"class.cv::Point_", ptr %8, i64 %9
  ret ptr %10
}

; Function Attrs: inlinehint mustprogress uwtable
define linkonce_odr hidden noundef i32 @_ZN2cv3RNG7uniformEii(ptr noundef nonnull align 8 dereferenceable(8) %0, i32 noundef %1, i32 noundef %2) #7 comdat align 2 {
  %4 = alloca ptr, align 8
  %5 = alloca i32, align 4
  %6 = alloca i32, align 4
  store ptr %0, ptr %4, align 8, !tbaa !49
  store i32 %1, ptr %5, align 4, !tbaa !10
  store i32 %2, ptr %6, align 4, !tbaa !10
  %7 = load ptr, ptr %4, align 8
  %8 = load i32, ptr %5, align 4, !tbaa !10
  %9 = load i32, ptr %6, align 4, !tbaa !10
  %10 = icmp eq i32 %8, %9
  br i1 %10, label %11, label %13

11:                                               ; preds = %3
  %12 = load i32, ptr %5, align 4, !tbaa !10
  br label %21

13:                                               ; preds = %3
  %14 = call noundef i32 @_ZN2cv3RNG4nextEv(ptr noundef nonnull align 8 dereferenceable(8) %7)
  %15 = load i32, ptr %6, align 4, !tbaa !10
  %16 = load i32, ptr %5, align 4, !tbaa !10
  %17 = sub nsw i32 %15, %16
  %18 = urem i32 %14, %17
  %19 = load i32, ptr %5, align 4, !tbaa !10
  %20 = add i32 %18, %19
  br label %21

21:                                               ; preds = %13, %11
  %22 = phi i32 [ %12, %11 ], [ %20, %13 ]
  ret i32 %22
}

; Function Attrs: inlinehint mustprogress nounwind uwtable
define linkonce_odr hidden void @_ZN2cv3RNGC2Em(ptr noundef nonnull align 8 dereferenceable(8) %0, i64 noundef %1) unnamed_addr #6 comdat align 2 {
  %3 = alloca ptr, align 8
  %4 = alloca i64, align 8
  store ptr %0, ptr %3, align 8, !tbaa !49
  store i64 %1, ptr %4, align 8, !tbaa !51
  %5 = load ptr, ptr %3, align 8
  %6 = load i64, ptr %4, align 8, !tbaa !51
  %7 = icmp ne i64 %6, 0
  br i1 %7, label %8, label %10

8:                                                ; preds = %2
  %9 = load i64, ptr %4, align 8, !tbaa !51
  br label %11

10:                                               ; preds = %2
  br label %11

11:                                               ; preds = %10, %8
  %12 = phi i64 [ %9, %8 ], [ 4294967295, %10 ]
  %13 = getelementptr inbounds nuw %"class.cv::RNG", ptr %5, i32 0, i32 0
  store i64 %12, ptr %13, align 8, !tbaa !52
  ret void
}

; Function Attrs: mustprogress uwtable
define hidden void @_ZN2cv4face18FacemarkKazemiImpl13getTestSplitsESt6vectorINS_6Point_IfEESaIS4_EEi(ptr dead_on_unwind noalias writable sret(%"struct.cv::face::splitr") align 8 %0, ptr noundef nonnull align 8 dereferenceable(216) %1, ptr noundef %2, i32 noundef %3) #4 align 2 {
  %5 = alloca ptr, align 8
  %6 = alloca ptr, align 8
  %7 = alloca i32, align 4
  %8 = alloca double, align 8
  %9 = alloca double, align 8
  %10 = alloca %"class.cv::RNG", align 8
  %11 = alloca %"class.cv::Point_", align 4
  %12 = alloca double, align 8
  store ptr %1, ptr %5, align 8, !tbaa !3
  store ptr %2, ptr %6, align 8, !tbaa !8
  store i32 %3, ptr %7, align 4, !tbaa !10
  %13 = load ptr, ptr %5, align 8
  call void @llvm.lifetime.start.p0(i64 8, ptr %8) #3
  call void @llvm.lifetime.start.p0(i64 8, ptr %9) #3
  call void @llvm.lifetime.start.p0(i64 8, ptr %10) #3
  %14 = load i32, ptr %7, align 4, !tbaa !10
  %15 = sext i32 %14 to i64
  call void @_ZN2cv3RNGC2Em(ptr noundef nonnull align 8 dereferenceable(8) %10, i64 noundef %15)
  br label %16

16:                                               ; preds = %69, %4
  %17 = getelementptr inbounds nuw %"class.cv::face::FacemarkKazemiImpl", ptr %13, i32 0, i32 1
  %18 = getelementptr inbounds nuw %"struct.cv::face::FacemarkKazemi::Params", ptr %17, i32 0, i32 5
  %19 = load i64, ptr %18, align 8, !tbaa !12
  %20 = trunc i64 %19 to i32
  %21 = call noundef i32 @_ZN2cv3RNG7uniformEii(ptr noundef nonnull align 8 dereferenceable(8) %10, i32 noundef 0, i32 noundef %20)
  %22 = sext i32 %21 to i64
  %23 = getelementptr inbounds nuw %"struct.cv::face::splitr", ptr %0, i32 0, i32 0
  store i64 %22, ptr %23, align 8, !tbaa !37
  %24 = getelementptr inbounds nuw %"class.cv::face::FacemarkKazemiImpl", ptr %13, i32 0, i32 1
  %25 = getelementptr inbounds nuw %"struct.cv::face::FacemarkKazemi::Params", ptr %24, i32 0, i32 5
  %26 = load i64, ptr %25, align 8, !tbaa !12
  %27 = trunc i64 %26 to i32
  %28 = call noundef i32 @_ZN2cv3RNG7uniformEii(ptr noundef nonnull align 8 dereferenceable(8) %10, i32 noundef 0, i32 noundef %27)
  %29 = sext i32 %28 to i64
  %30 = getelementptr inbounds nuw %"struct.cv::face::splitr", ptr %0, i32 0, i32 1
  store i64 %29, ptr %30, align 8, !tbaa !39
  call void @llvm.lifetime.start.p0(i64 8, ptr %11) #3
  %31 = getelementptr inbounds nuw %"struct.cv::face::splitr", ptr %0, i32 0, i32 0
  %32 = load i64, ptr %31, align 8, !tbaa !37
  %33 = call noundef nonnull align 4 dereferenceable(8) ptr @_ZNSt6vectorIN2cv6Point_IfEESaIS2_EEixEm(ptr noundef nonnull align 8 dereferenceable(24) %2, i64 noundef %32) #3
  %34 = getelementptr inbounds nuw %"struct.cv::face::splitr", ptr %0, i32 0, i32 1
  %35 = load i64, ptr %34, align 8, !tbaa !39
  %36 = call noundef nonnull align 4 dereferenceable(8) ptr @_ZNSt6vectorIN2cv6Point_IfEESaIS2_EEixEm(ptr noundef nonnull align 8 dereferenceable(24) %2, i64 noundef %35) #3
  %37 = call <2 x float> @_ZN2cvmiIfEENS_6Point_IT_EERKS3_S5_(ptr noundef nonnull align 4 dereferenceable(8) %33, ptr noundef nonnull align 4 dereferenceable(8) %36)
  store <2 x float> %37, ptr %11, align 4
  call void @llvm.lifetime.start.p0(i64 8, ptr %12) #3
  %38 = getelementptr inbounds nuw %"class.cv::Point_", ptr %11, i32 0, i32 0
  %39 = load float, ptr %38, align 4, !tbaa !40
  %40 = getelementptr inbounds nuw %"class.cv::Point_", ptr %11, i32 0, i32 0
  %41 = load float, ptr %40, align 4, !tbaa !40
  %42 = getelementptr inbounds nuw %"class.cv::Point_", ptr %11, i32 0, i32 1
  %43 = load float, ptr %42, align 4, !tbaa !42
  %44 = getelementptr inbounds nuw %"class.cv::Point_", ptr %11, i32 0, i32 1
  %45 = load float, ptr %44, align 4, !tbaa !42
  %46 = fmul float %43, %45
  %47 = call float @llvm.fmuladd.f32(float %39, float %41, float %46)
  %48 = call noundef float @_ZSt4sqrtf(float noundef %47)
  %49 = fpext float %48 to double
  store double %49, ptr %12, align 8, !tbaa !43
  %50 = load double, ptr %12, align 8, !tbaa !43
  %51 = fneg double %50
  %52 = getelementptr inbounds nuw %"class.cv::face::FacemarkKazemiImpl", ptr %13, i32 0, i32 1
  %53 = getelementptr inbounds nuw %"struct.cv::face::FacemarkKazemi::Params", ptr %52, i32 0, i32 6
  %54 = load float, ptr %53, align 8, !tbaa !45
  %55 = fpext float %54 to double
  %56 = fdiv double %51, %55
  %57 = call double @exp(double noundef %56) #3, !tbaa !10
  store double %57, ptr %8, align 8, !tbaa !43
  %58 = call noundef double @_ZN2cv3RNG7uniformEdd(ptr noundef nonnull align 8 dereferenceable(8) %10, double noundef 0.000000e+00, double noundef 1.000000e+00)
  store double %58, ptr %9, align 8, !tbaa !43
  call void @llvm.lifetime.end.p0(i64 8, ptr %12) #3
  call void @llvm.lifetime.end.p0(i64 8, ptr %11) #3
  br label %59

59:                                               ; preds = %16
  %60 = load double, ptr %9, align 8, !tbaa !43
  %61 = load double, ptr %8, align 8, !tbaa !43
  %62 = fcmp ogt double %60, %61
  br i1 %62, label %69, label %63

63:                                               ; preds = %59
  %64 = getelementptr inbounds nuw %"struct.cv::face::splitr", ptr %0, i32 0, i32 0
  %65 = load i64, ptr %64, align 8, !tbaa !37
  %66 = getelementptr inbounds nuw %"struct.cv::face::splitr", ptr %0, i32 0, i32 1
  %67 = load i64, ptr %66, align 8, !tbaa !39
  %68 = icmp eq i64 %65, %67
  br label %69

69:                                               ; preds = %63, %59
  %70 = phi i1 [ true, %59 ], [ %68, %63 ]
  br i1 %70, label %16, label %71, !llvm.loop !46

71:                                               ; preds = %69
  %72 = call noundef double @_ZN2cv3RNG7uniformEdd(ptr noundef nonnull align 8 dereferenceable(8) %10, double noundef 0.000000e+00, double noundef 1.000000e+00)
  %73 = call double @llvm.fmuladd.f64(double %72, double 2.560000e+02, double -1.280000e+02)
  %74 = fdiv double %73, 2.000000e+00
  %75 = fptrunc double %74 to float
  %76 = getelementptr inbounds nuw %"struct.cv::face::splitr", ptr %0, i32 0, i32 2
  store float %75, ptr %76, align 8, !tbaa !48
  call void @llvm.lifetime.end.p0(i64 8, ptr %10) #3
  call void @llvm.lifetime.end.p0(i64 8, ptr %9) #3
  call void @llvm.lifetime.end.p0(i64 8, ptr %8) #3
  ret void
}