; Function Attrs: mustprogress nofree nounwind memory(readwrite, inaccessiblemem: write) uwtable
define hidden void @_ZN2cv4face18FacemarkKazemiImpl13getTestSplitsESt6vectorINS_6Point_IfEESaIS4_EEi(ptr dead_on_unwind noalias writable writeonly sret(%"struct.cv::face::splitr") align 8 captures(none) %0, ptr noundef nonnull readonly align 8 captures(none) dereferenceable(216) %1, ptr noundef readonly captures(none) %2, i32 noundef %3) local_unnamed_addr #3 align 2 {
  %5 = getelementptr inbounds nuw i8, ptr %1, i64 48
  %6 = load i64, ptr %5, align 8, !tbaa !3
  %7 = trunc i64 %6 to i32
  %8 = icmp eq i32 %7, 0
  %9 = load ptr, ptr %2, align 8, !tbaa !32
  %10 = getelementptr inbounds nuw i8, ptr %1, i64 56
  %11 = load float, ptr %10, align 8, !tbaa !33
  %12 = fpext float %11 to double
  br i1 %8, label %.split.us.split, label %_ZN2cv3RNG7uniformEii.exit11.preheader

_ZN2cv3RNG7uniformEii.exit11.preheader:           ; preds = %4
  %.not.i = icmp eq i32 %3, 0
  %13 = sext i32 %3 to i64
  %14 = select i1 %.not.i, i64 4294967295, i64 %13
  br label %_ZN2cv3RNG7uniformEii.exit11

.split.us.split:                                  ; preds = %4
  %.val.us = load float, ptr %9, align 4, !tbaa !34
  %15 = getelementptr i8, ptr %9, i64 4
  %.val8.us = load float, ptr %15, align 4, !tbaa !36
  %16 = fsub float %.val.us, %.val.us
  %17 = fsub float %.val8.us, %.val8.us
  %18 = fmul float %17, %17
  %19 = tail call float @llvm.fmuladd.f32(float %16, float %16, float %18)
  %sqrt.us = tail call float @llvm.sqrt.f32(float %19)
  %20 = fpext float %sqrt.us to double
  %21 = fneg double %20
  %22 = fdiv double %21, %12
  br label %_ZN2cv3RNG7uniformEii.exit.thread.us

_ZN2cv3RNG7uniformEii.exit.thread.us:             ; preds = %_ZN2cv3RNG7uniformEii.exit.thread.us, %.split.us.split
  %23 = tail call double @exp(double noundef %22) #22, !tbaa !37
  br label %_ZN2cv3RNG7uniformEii.exit.thread.us

_ZN2cv3RNG7uniformEii.exit11:                     ; preds = %_ZN2cv3RNG7uniformEii.exit11.preheader, %_ZN2cv3RNG7uniformEii.exit11
  %.sroa.0.0 = phi i64 [ %58, %_ZN2cv3RNG7uniformEii.exit11 ], [ %14, %_ZN2cv3RNG7uniformEii.exit11.preheader ]
  %24 = and i64 %.sroa.0.0, 4294967295
  %25 = mul nuw i64 %24, 4164903690
  %26 = lshr i64 %.sroa.0.0, 32
  %27 = add nuw i64 %25, %26
  %28 = trunc i64 %27 to i32
  %29 = urem i32 %28, %7
  %30 = sext i32 %29 to i64
  %31 = and i64 %27, 4294967295
  %32 = mul nuw i64 %31, 4164903690
  %33 = lshr i64 %27, 32
  %34 = add nuw i64 %32, %33
  %35 = trunc i64 %34 to i32
  %36 = urem i32 %35, %7
  %37 = sext i32 %36 to i64
  %38 = getelementptr inbounds nuw %"class.cv::Point_", ptr %9, i64 %30
  %39 = getelementptr inbounds nuw %"class.cv::Point_", ptr %9, i64 %37
  %.val = load float, ptr %38, align 4, !tbaa !34
  %40 = getelementptr i8, ptr %38, i64 4
  %.val8 = load float, ptr %40, align 4, !tbaa !36
  %.val9 = load float, ptr %39, align 4, !tbaa !34
  %41 = getelementptr i8, ptr %39, i64 4
  %.val10 = load float, ptr %41, align 4, !tbaa !36
  %42 = fsub float %.val, %.val9
  %43 = fsub float %.val8, %.val10
  %44 = fmul float %43, %43
  %45 = tail call float @llvm.fmuladd.f32(float %42, float %42, float %44)
  %sqrt = tail call float @llvm.sqrt.f32(float %45)
  %46 = fpext float %sqrt to double
  %47 = fneg double %46
  %48 = fdiv double %47, %12
  %49 = tail call double @exp(double noundef %48) #22, !tbaa !37
  %50 = and i64 %34, 4294967295
  %51 = mul nuw i64 %50, 4164903690
  %52 = lshr i64 %34, 32
  %53 = add nuw i64 %51, %52
  %54 = shl i64 %53, 32
  %55 = and i64 %53, 4294967295
  %56 = mul nuw i64 %55, 4164903690
  %57 = lshr i64 %53, 32
  %58 = add nuw i64 %56, %57
  %59 = and i64 %58, 4294967295
  %60 = or disjoint i64 %59, %54
  %61 = uitofp i64 %60 to double
  %62 = fmul double %61, 0x3BF0000000000000
  %63 = fcmp ogt double %62, %49
  %64 = icmp eq i32 %29, %36
  %65 = or i1 %64, %63
  br i1 %65, label %_ZN2cv3RNG7uniformEii.exit11, label %.split20, !llvm.loop !39

.split20:                                         ; preds = %_ZN2cv3RNG7uniformEii.exit11
  %66 = getelementptr inbounds nuw i8, ptr %0, i64 8
  store i64 %30, ptr %0, align 8
  store i64 %37, ptr %66, align 8, !tbaa !41
  %67 = mul nuw i64 %59, 4164903690
  %68 = lshr i64 %58, 32
  %69 = add nuw i64 %67, %68
  %70 = shl i64 %69, 32
  %71 = mul i64 %69, 4164903690
  %72 = lshr i64 %69, 32
  %73 = add i64 %71, %72
  %74 = and i64 %73, 4294967295
  %75 = or disjoint i64 %74, %70
  %76 = uitofp i64 %75 to double
  %77 = fmul double %76, 0x3BF0000000000000
  %78 = fadd double %77, 0.000000e+00
  %79 = tail call double @llvm.fmuladd.f64(double %78, double 2.560000e+02, double -1.280000e+02)
  %80 = fmul double %79, 5.000000e-01
  %81 = fptrunc double %80 to float
  %82 = getelementptr inbounds nuw i8, ptr %0, i64 16
  store float %81, ptr %82, align 8, !tbaa !43
  ret void
}